(ideluge.core.torrentmanager
TorrentManagerState
p1
(dp2
S'torrents'
p3
(lp4
(ideluge.core.torrentmanager
TorrentState
p5
(dp6
S'max_download_speed'
p7
F-1
sS'move_completed_path'
p8
S'/home/xorob0/Downloads'
p9
sS'paused'
p10
I00
sS'max_upload_slots'
p11
I-1
sS'prioritize_first_last'
p12
I00
sS'max_connections'
p13
I-1
sS'compact'
p14
I00
sS'queue'
p15
I0
sS'file_priorities'
p16
(lp17
I1
aI1
aI1
asS'filename'
p18
S'96d9e62d79d27efd6b17a837ebb3561f0cd2282c'
p19
sS'max_upload_speed'
p20
F-1
sS'save_path'
p21
S'/home/xorob0/Downloads'
p22
sS'time_added'
p23
F1487695411.577774
sS'total_uploaded'
p24
I0
sS'torrent_id'
p25
S'96d9e62d79d27efd6b17a837ebb3561f0cd2282c'
p26
sS'auto_managed'
p27
I01
sS'stop_at_ratio'
p28
I00
sS'move_completed'
p29
I00
sS'trackers'
p30
(lp31
(dp32
S'send_stats'
p33
I01
sS'fails'
p34
I0
sS'verified'
p35
I00
sS'url'
p36
S'udp://tracker.leechers-paradise.org:6969'
p37
sS'fail_limit'
p38
I0
sS'complete_sent'
p39
I00
sS'source'
p40
I4
sS'start_sent'
p41
I00
sS'tier'
p42
I0
sS'updating'
p43
I00
sa(dp44
S'send_stats'
p45
I01
sS'fails'
p46
I0
sS'verified'
p47
I00
sS'url'
p48
S'udp://zer0day.ch:1337'
p49
sS'fail_limit'
p50
I0
sS'complete_sent'
p51
I00
sS'source'
p52
I4
sS'start_sent'
p53
I00
sS'tier'
p54
I0
sS'updating'
p55
I00
sa(dp56
S'send_stats'
p57
I01
sS'fails'
p58
I0
sS'verified'
p59
I00
sS'url'
p60
S'udp://tracker.coppersurfer.tk:6969'
p61
sS'fail_limit'
p62
I0
sS'complete_sent'
p63
I00
sS'source'
p64
I4
sS'start_sent'
p65
I00
sS'tier'
p66
I0
sS'updating'
p67
I00
sa(dp68
S'send_stats'
p69
I01
sS'fails'
p70
I0
sS'verified'
p71
I00
sS'url'
p72
S'udp://public.popcorn-tracker.org:6969'
p73
sS'fail_limit'
p74
I0
sS'complete_sent'
p75
I00
sS'source'
p76
I4
sS'start_sent'
p77
I00
sS'tier'
p78
I0
sS'updating'
p79
I00
sasS'magnet'
p80
NsS'remove_at_ratio'
p81
I00
sS'stop_ratio'
p82
F2
sS'is_finished'
p83
I01
sba(ideluge.core.torrentmanager
TorrentState
p84
(dp85
g7
F-1
sg8
S'/home/xorob0/Downloads'
p86
sg10
I00
sg11
I-1
sg12
I00
sg13
I-1
sg14
I00
sg15
I1
sg16
(lp87
I1
asg18
S'KonoSuba Saison 2-02 Vostfr.mp4.torrent'
p88
sg20
F-1
sg21
S'/home/xorob0/Downloads'
p89
sg23
F1489868157.229646
sg24
I0
sg25
S'8133b3be0d8736c021a7c1155503dce3edad1283'
p90
sg27
I01
sg28
I00
sg29
I00
sg30
(lp91
(dp92
S'send_stats'
p93
I01
sS'fails'
p94
I0
sS'verified'
p95
I00
sS'url'
p96
S'http://t411.download/8b790bf0e3d6b218bc925f72b784b37f/announce'
p97
sS'fail_limit'
p98
I0
sS'complete_sent'
p99
I00
sS'source'
p100
I1
sS'start_sent'
p101
I00
sS'tier'
p102
I0
sS'updating'
p103
I00
sasg80
Nsg81
I00
sg82
F2
sg83
I01
sba(ideluge.core.torrentmanager
TorrentState
p104
(dp105
g7
F-1
sg8
S'/home/xorob0/Downloads'
p106
sg10
I00
sg11
I-1
sg12
I00
sg13
I-1
sg14
I00
sg15
I2
sg16
(lp107
I1
aI1
aI1
aI1
asg18
S'American Pie Quadrilogie.BluRay.MULTI.1080p.x265-JOYSTICK--2.torrent'
p108
sg20
F-1
sg21
S'/home/xorob0/Videos'
p109
sg23
F1485157671.2685959
sg24
I0
sg25
S'4fd67671b9a3f5bb5433eddab294eadc9d568195'
p110
sg27
I01
sg28
I00
sg29
I00
sg30
(lp111
(dp112
S'send_stats'
p113
I01
sS'fails'
p114
I0
sS'verified'
p115
I00
sS'url'
p116
S'http://t411.download/f9b4856e3428634dca490df2f8a1d5e0/announce'
p117
sS'fail_limit'
p118
I0
sS'complete_sent'
p119
I00
sS'source'
p120
I1
sS'start_sent'
p121
I00
sS'tier'
p122
I0
sS'updating'
p123
I00
sasg80
Nsg81
I00
sg82
F2
sg83
I01
sba(ideluge.core.torrentmanager
TorrentState
p124
(dp125
g7
F-1
sg8
S'/home/xorob0/Downloads'
p126
sg10
I00
sg11
I-1
sg12
I00
sg13
I-1
sg14
I00
sg15
I3
sg16
(lp127
I1
aI1
aI1
asg18
S'6d9348f7044d3009d7aaf1b64feda7030acfe792'
p128
sg20
F-1
sg21
S'/home/xorob0/Downloads'
p129
sg23
F1489864311.564642
sg24
I38980247
sg25
S'6d9348f7044d3009d7aaf1b64feda7030acfe792'
p130
sg27
I01
sg28
I00
sg29
I00
sg30
(lp131
(dp132
S'send_stats'
p133
I01
sS'fails'
p134
I0
sS'verified'
p135
I00
sS'url'
p136
S'udp://tracker.leechers-paradise.org:6969'
p137
sS'fail_limit'
p138
I0
sS'complete_sent'
p139
I00
sS'source'
p140
I4
sS'start_sent'
p141
I00
sS'tier'
p142
I0
sS'updating'
p143
I00
sa(dp144
S'send_stats'
p145
I01
sS'fails'
p146
I0
sS'verified'
p147
I00
sS'url'
p148
S'udp://zer0day.ch:1337'
p149
sS'fail_limit'
p150
I0
sS'complete_sent'
p151
I00
sS'source'
p152
I4
sS'start_sent'
p153
I00
sS'tier'
p154
I0
sS'updating'
p155
I00
sa(dp156
S'send_stats'
p157
I01
sS'fails'
p158
I0
sS'verified'
p159
I00
sS'url'
p160
S'udp://tracker.coppersurfer.tk:6969'
p161
sS'fail_limit'
p162
I0
sS'complete_sent'
p163
I00
sS'source'
p164
I4
sS'start_sent'
p165
I00
sS'tier'
p166
I0
sS'updating'
p167
I00
sa(dp168
S'send_stats'
p169
I01
sS'fails'
p170
I0
sS'verified'
p171
I00
sS'url'
p172
S'udp://public.popcorn-tracker.org:6969'
p173
sS'fail_limit'
p174
I0
sS'complete_sent'
p175
I00
sS'source'
p176
I4
sS'start_sent'
p177
I00
sS'tier'
p178
I0
sS'updating'
p179
I00
sasg80
Nsg81
I00
sg82
F2
sg83
I01
sba(ideluge.core.torrentmanager
TorrentState
p180
(dp181
g7
F-1
sg8
S'/home/xorob0/Downloads'
p182
sg10
I00
sg11
I-1
sg12
I00
sg13
I-1
sg14
I00
sg15
I35
sg16
(lp183
I1
asg18
S'38631b82079ad2e44e4bc518b3dcc2d569130cda'
p184
sg20
F-1
sg21
S'/home/xorob0/Downloads'
p185
sg23
F1486731304.120738
sg24
I21237030
sg25
S'38631b82079ad2e44e4bc518b3dcc2d569130cda'
p186
sg27
I01
sg28
I00
sg29
I00
sg30
(lp187
(dp188
S'send_stats'
p189
I01
sS'fails'
p190
I0
sS'verified'
p191
I00
sS'url'
p192
S'udp://tracker.leechers-paradise.org:6969'
p193
sS'fail_limit'
p194
I0
sS'complete_sent'
p195
I00
sS'source'
p196
I4
sS'start_sent'
p197
I00
sS'tier'
p198
I0
sS'updating'
p199
I00
sa(dp200
S'send_stats'
p201
I01
sS'fails'
p202
I0
sS'verified'
p203
I00
sS'url'
p204
S'udp://zer0day.ch:1337'
p205
sS'fail_limit'
p206
I0
sS'complete_sent'
p207
I00
sS'source'
p208
I4
sS'start_sent'
p209
I00
sS'tier'
p210
I0
sS'updating'
p211
I00
sa(dp212
S'send_stats'
p213
I01
sS'fails'
p214
I0
sS'verified'
p215
I00
sS'url'
p216
S'udp://tracker.coppersurfer.tk:6969'
p217
sS'fail_limit'
p218
I0
sS'complete_sent'
p219
I00
sS'source'
p220
I4
sS'start_sent'
p221
I00
sS'tier'
p222
I0
sS'updating'
p223
I00
sa(dp224
S'send_stats'
p225
I01
sS'fails'
p226
I0
sS'verified'
p227
I00
sS'url'
p228
S'udp://public.popcorn-tracker.org:6969'
p229
sS'fail_limit'
p230
I0
sS'complete_sent'
p231
I00
sS'source'
p232
I4
sS'start_sent'
p233
I00
sS'tier'
p234
I0
sS'updating'
p235
I00
sasg80
Nsg81
I00
sg82
F2
sg83
I01
sba(ideluge.core.torrentmanager
TorrentState
p236
(dp237
g7
F-1
sg8
S'/home/xorob0/Downloads'
p238
sg10
I00
sg11
I-1
sg12
I00
sg13
I-1
sg14
I00
sg15
I33
sg16
(lp239
I1
asg18
S'e78f3951d65a8589a65d618dc321f14e879190a0'
p240
sg20
F-1
sg21
S'/home/xorob0/Downloads'
p241
sg23
F1486731258.166477
sg24
I30979541
sg25
S'e78f3951d65a8589a65d618dc321f14e879190a0'
p242
sg27
I01
sg28
I00
sg29
I00
sg30
(lp243
(dp244
S'send_stats'
p245
I01
sS'fails'
p246
I0
sS'verified'
p247
I00
sS'url'
p248
S'udp://tracker.leechers-paradise.org:6969'
p249
sS'fail_limit'
p250
I0
sS'complete_sent'
p251
I00
sS'source'
p252
I4
sS'start_sent'
p253
I00
sS'tier'
p254
I0
sS'updating'
p255
I00
sa(dp256
S'send_stats'
p257
I01
sS'fails'
p258
I0
sS'verified'
p259
I00
sS'url'
p260
S'udp://zer0day.ch:1337'
p261
sS'fail_limit'
p262
I0
sS'complete_sent'
p263
I00
sS'source'
p264
I4
sS'start_sent'
p265
I00
sS'tier'
p266
I0
sS'updating'
p267
I00
sa(dp268
S'send_stats'
p269
I01
sS'fails'
p270
I0
sS'verified'
p271
I00
sS'url'
p272
S'udp://tracker.coppersurfer.tk:6969'
p273
sS'fail_limit'
p274
I0
sS'complete_sent'
p275
I00
sS'source'
p276
I4
sS'start_sent'
p277
I00
sS'tier'
p278
I0
sS'updating'
p279
I00
sa(dp280
S'send_stats'
p281
I01
sS'fails'
p282
I0
sS'verified'
p283
I00
sS'url'
p284
S'udp://public.popcorn-tracker.org:6969'
p285
sS'fail_limit'
p286
I0
sS'complete_sent'
p287
I00
sS'source'
p288
I4
sS'start_sent'
p289
I00
sS'tier'
p290
I0
sS'updating'
p291
I00
sasg80
Nsg81
I00
sg82
F2
sg83
I01
sba(ideluge.core.torrentmanager
TorrentState
p292
(dp293
g7
F-1
sg8
S'/home/xorob0/Downloads'
p294
sg10
I00
sg11
I-1
sg12
I00
sg13
I-1
sg14
I00
sg15
I4
sg16
(lp295
I1
aI1
aI1
aI1
aI1
aI1
aI1
aI1
aI1
aI1
aI1
aI1
aI1
aI1
aI1
aI1
aI1
aI1
aI1
aI1
aI1
aI1
aI1
aI1
aI1
aI1
asg18
S'Mirai Nikki.torrent'
p296
sg20
F-1
sg21
S'/home/xorob0/Downloads'
p297
sg23
F1486808429.1240649
sg24
I0
sg25
S'dd476aecc728b670b7c17e315b28e0001fb78e51'
p298
sg27
I01
sg28
I00
sg29
I00
sg30
(lp299
(dp300
S'tier'
p301
I0
sS'url'
p302
S'http://t411.download/f53f4lol1ff0afb2c7d652c31b01a8256c0/announce'
p303
sasg80
Nsg81
I00
sg82
F2
sg83
I01
sba(ideluge.core.torrentmanager
TorrentState
p304
(dp305
g7
F-1
sg8
S'/home/xorob0/Downloads'
p306
sg10
I00
sg11
I-1
sg12
I00
sg13
I-1
sg14
I00
sg15
I5
sg16
(lp307
I1
aI1
aI1
aI1
aI1
aI1
aI1
aI1
aI1
aI1
aI1
aI7
asg18
S'6b5ec3343faffc25370a3d6c71a66652e4c35f02'
p308
sg20
F-1
sg21
S'/home/xorob0/Downloads'
p309
sg23
F1487704710.5852981
sg24
I1489119354
sg25
S'6b5ec3343faffc25370a3d6c71a66652e4c35f02'
p310
sg27
I01
sg28
I00
sg29
I00
sg30
(lp311
(dp312
S'send_stats'
p313
I01
sS'fails'
p314
I0
sS'verified'
p315
I00
sS'url'
p316
S'udp://tracker.leechers-paradise.org:6969'
p317
sS'fail_limit'
p318
I0
sS'complete_sent'
p319
I00
sS'source'
p320
I4
sS'start_sent'
p321
I00
sS'tier'
p322
I0
sS'updating'
p323
I00
sa(dp324
S'send_stats'
p325
I01
sS'fails'
p326
I0
sS'verified'
p327
I00
sS'url'
p328
S'udp://zer0day.ch:1337'
p329
sS'fail_limit'
p330
I0
sS'complete_sent'
p331
I00
sS'source'
p332
I4
sS'start_sent'
p333
I00
sS'tier'
p334
I0
sS'updating'
p335
I00
sa(dp336
S'send_stats'
p337
I01
sS'fails'
p338
I0
sS'verified'
p339
I00
sS'url'
p340
S'udp://tracker.coppersurfer.tk:6969'
p341
sS'fail_limit'
p342
I0
sS'complete_sent'
p343
I00
sS'source'
p344
I4
sS'start_sent'
p345
I00
sS'tier'
p346
I0
sS'updating'
p347
I00
sa(dp348
S'send_stats'
p349
I01
sS'fails'
p350
I0
sS'verified'
p351
I00
sS'url'
p352
S'udp://public.popcorn-tracker.org:6969'
p353
sS'fail_limit'
p354
I0
sS'complete_sent'
p355
I00
sS'source'
p356
I4
sS'start_sent'
p357
I00
sS'tier'
p358
I0
sS'updating'
p359
I00
sasg80
Nsg81
I00
sg82
F2
sg83
I01
sba(ideluge.core.torrentmanager
TorrentState
p360
(dp361
g7
F-1
sg8
S'/home/xorob0/Downloads'
p362
sg10
I00
sg11
I-1
sg12
I00
sg13
I-1
sg14
I00
sg15
I9
sg16
(lp363
I1
asg18
S'Antidote 9 v4.1.torrent'
p364
sg20
F-1
sg21
S'/home/xorob0/Downloads'
p365
sg23
F1488551594.299886
sg24
I0
sg25
S'c5a6a27d8add5afea997ef7eb5298e0bd9c0dd02'
p366
sg27
I01
sg28
I00
sg29
I00
sg30
(lp367
(dp368
S'tier'
p369
I0
sS'url'
p370
S'http://t411.download/8lolb790bf0e3d6b218bc925f72b784b37f/announce'
p371
sasg80
Nsg81
I00
sg82
F2
sg83
I01
sba(ideluge.core.torrentmanager
TorrentState
p372
(dp373
g7
F-1
sg8
S'/home/xorob0/Downloads'
p374
sg10
I00
sg11
I-1
sg12
I00
sg13
I-1
sg14
I00
sg15
I7
sg16
(lp375
I1
asg18
S'[DefinitelyNotMe] Ao no Exorcist - Kyoto Fujouou-hen - 01 VOSTFR [720p].mkv.torrent'
p376
sg20
F-1
sg21
S'/home/xorob0/Downloads'
p377
sg23
F1486809289.2163169
sg24
I124841
sg25
S'90ac5582a7b73be5d034e64300c2644a927b4d51'
p378
sg27
I01
sg28
I00
sg29
I00
sg30
(lp379
(dp380
S'send_stats'
p381
I01
sS'fails'
p382
I0
sS'verified'
p383
I00
sS'url'
p384
S'http://t411.download/f53f41ff0afb2c7d652c31b01a8256c0/announce'
p385
sS'fail_limit'
p386
I0
sS'complete_sent'
p387
I00
sS'source'
p388
I1
sS'start_sent'
p389
I00
sS'tier'
p390
I0
sS'updating'
p391
I00
sasg80
Nsg81
I00
sg82
F2
sg83
I01
sba(ideluge.core.torrentmanager
TorrentState
p392
(dp393
g7
F-1
sg8
S'/home/xorob0/Downloads'
p394
sg10
I01
sg11
I-1
sg12
I00
sg13
I-1
sg14
I00
sg15
I37
sg16
(lp395
I1
aI1
aI1
aI1
aI1
aI1
asg18
S'2f27faa731dc71725e1a1cb0b8f9ccdbb17dd108'
p396
sg20
F-1
sg21
S'/home/xorob0/Downloads'
p397
sg23
F1486371456.232209
sg24
I7599830
sg25
S'2f27faa731dc71725e1a1cb0b8f9ccdbb17dd108'
p398
sg27
I01
sg28
I00
sg29
I00
sg30
(lp399
(dp400
S'send_stats'
p401
I01
sS'fails'
p402
I0
sS'verified'
p403
I00
sS'url'
p404
S'udp://tracker.leechers-paradise.org:6969'
p405
sS'fail_limit'
p406
I0
sS'complete_sent'
p407
I00
sS'source'
p408
I4
sS'start_sent'
p409
I00
sS'tier'
p410
I0
sS'updating'
p411
I00
sa(dp412
S'send_stats'
p413
I01
sS'fails'
p414
I0
sS'verified'
p415
I00
sS'url'
p416
S'udp://zer0day.ch:1337'
p417
sS'fail_limit'
p418
I0
sS'complete_sent'
p419
I00
sS'source'
p420
I4
sS'start_sent'
p421
I00
sS'tier'
p422
I0
sS'updating'
p423
I00
sa(dp424
S'send_stats'
p425
I01
sS'fails'
p426
I0
sS'verified'
p427
I00
sS'url'
p428
S'udp://tracker.coppersurfer.tk:6969'
p429
sS'fail_limit'
p430
I0
sS'complete_sent'
p431
I00
sS'source'
p432
I4
sS'start_sent'
p433
I00
sS'tier'
p434
I0
sS'updating'
p435
I00
sa(dp436
S'send_stats'
p437
I01
sS'fails'
p438
I0
sS'verified'
p439
I00
sS'url'
p440
S'udp://public.popcorn-tracker.org:6969'
p441
sS'fail_limit'
p442
I0
sS'complete_sent'
p443
I00
sS'source'
p444
I4
sS'start_sent'
p445
I00
sS'tier'
p446
I0
sS'updating'
p447
I00
sasg80
Nsg81
I00
sg82
F2
sg83
I00
sba(ideluge.core.torrentmanager
TorrentState
p448
(dp449
g7
F-1
sg8
S'/home/xorob0/Downloads'
p450
sg10
I00
sg11
I-1
sg12
I00
sg13
I-1
sg14
I00
sg15
I8
sg16
(lp451
I1
aI1
aI1
asg18
S'c4be8b5b04b580dbca4211d31221f4212d5a9e7b'
p452
sg20
F-1
sg21
S'/home/xorob0/Downloads'
p453
sg23
F1487703820.121289
sg24
I258554
sg25
S'c4be8b5b04b580dbca4211d31221f4212d5a9e7b'
p454
sg27
I01
sg28
I00
sg29
I00
sg30
(lp455
(dp456
S'send_stats'
p457
I01
sS'fails'
p458
I0
sS'verified'
p459
I00
sS'url'
p460
S'udp://tracker.leechers-paradise.org:6969'
p461
sS'fail_limit'
p462
I0
sS'complete_sent'
p463
I00
sS'source'
p464
I4
sS'start_sent'
p465
I00
sS'tier'
p466
I0
sS'updating'
p467
I00
sa(dp468
S'send_stats'
p469
I01
sS'fails'
p470
I0
sS'verified'
p471
I00
sS'url'
p472
S'udp://zer0day.ch:1337'
p473
sS'fail_limit'
p474
I0
sS'complete_sent'
p475
I00
sS'source'
p476
I4
sS'start_sent'
p477
I00
sS'tier'
p478
I0
sS'updating'
p479
I00
sa(dp480
S'send_stats'
p481
I01
sS'fails'
p482
I0
sS'verified'
p483
I00
sS'url'
p484
S'udp://tracker.coppersurfer.tk:6969'
p485
sS'fail_limit'
p486
I0
sS'complete_sent'
p487
I00
sS'source'
p488
I4
sS'start_sent'
p489
I00
sS'tier'
p490
I0
sS'updating'
p491
I00
sa(dp492
S'send_stats'
p493
I01
sS'fails'
p494
I0
sS'verified'
p495
I00
sS'url'
p496
S'udp://public.popcorn-tracker.org:6969'
p497
sS'fail_limit'
p498
I0
sS'complete_sent'
p499
I00
sS'source'
p500
I4
sS'start_sent'
p501
I00
sS'tier'
p502
I0
sS'updating'
p503
I00
sasg80
Nsg81
I00
sg82
F2
sg83
I01
sba(ideluge.core.torrentmanager
TorrentState
p504
(dp505
g7
F-1
sg8
S'/home/xorob0/Downloads'
p506
sg10
I00
sg11
I-1
sg12
I00
sg13
I-1
sg14
I00
sg15
I10
sg16
(lp507
I1
asg18
S'KonoSuba Saison 2-01 Vostfr.mp4.torrent'
p508
sg20
F-1
sg21
S'/home/xorob0/Downloads'
p509
sg23
F1489868137.577739
sg24
I0
sg25
S'a3f5793ad74a801c34858d3746c49ecfa36ef571'
p510
sg27
I01
sg28
I00
sg29
I00
sg30
(lp511
(dp512
S'send_stats'
p513
I01
sS'fails'
p514
I0
sS'verified'
p515
I00
sS'url'
p516
S'http://t411.download/8b790bf0e3d6b218bc925f72b784b37f/announce'
p517
sS'fail_limit'
p518
I0
sS'complete_sent'
p519
I00
sS'source'
p520
I1
sS'start_sent'
p521
I00
sS'tier'
p522
I0
sS'updating'
p523
I00
sasg80
Nsg81
I00
sg82
F2
sg83
I01
sba(ideluge.core.torrentmanager
TorrentState
p524
(dp525
g7
F-1
sg8
S'/home/xorob0/Downloads'
p526
sg10
I00
sg11
I-1
sg12
I00
sg13
I-1
sg14
I00
sg15
I38
sg16
(lp527
I1
asg18
S'48362d25e7354117c13f93fd7d9deb993061f3ee'
p528
sg20
F-1
sg21
S'/home/xorob0/Downloads'
p529
sg23
F1486731136.9944589
sg24
I6017196
sg25
S'48362d25e7354117c13f93fd7d9deb993061f3ee'
p530
sg27
I01
sg28
I00
sg29
I00
sg30
(lp531
(dp532
S'send_stats'
p533
I01
sS'fails'
p534
I0
sS'verified'
p535
I00
sS'url'
p536
S'udp://tracker.leechers-paradise.org:6969'
p537
sS'fail_limit'
p538
I0
sS'complete_sent'
p539
I00
sS'source'
p540
I4
sS'start_sent'
p541
I00
sS'tier'
p542
I0
sS'updating'
p543
I00
sa(dp544
S'send_stats'
p545
I01
sS'fails'
p546
I0
sS'verified'
p547
I00
sS'url'
p548
S'udp://zer0day.ch:1337'
p549
sS'fail_limit'
p550
I0
sS'complete_sent'
p551
I00
sS'source'
p552
I4
sS'start_sent'
p553
I00
sS'tier'
p554
I0
sS'updating'
p555
I00
sa(dp556
S'send_stats'
p557
I01
sS'fails'
p558
I0
sS'verified'
p559
I00
sS'url'
p560
S'udp://tracker.coppersurfer.tk:6969'
p561
sS'fail_limit'
p562
I0
sS'complete_sent'
p563
I00
sS'source'
p564
I4
sS'start_sent'
p565
I00
sS'tier'
p566
I0
sS'updating'
p567
I00
sa(dp568
S'send_stats'
p569
I01
sS'fails'
p570
I0
sS'verified'
p571
I00
sS'url'
p572
S'udp://public.popcorn-tracker.org:6969'
p573
sS'fail_limit'
p574
I0
sS'complete_sent'
p575
I00
sS'source'
p576
I4
sS'start_sent'
p577
I00
sS'tier'
p578
I0
sS'updating'
p579
I00
sasg80
Nsg81
I00
sg82
F2
sg83
I00
sba(ideluge.core.torrentmanager
TorrentState
p580
(dp581
g7
F-1
sg8
S'/home/xorob0/Downloads'
p582
sg10
I01
sg11
I-1
sg12
I00
sg13
I-1
sg14
I00
sg15
I39
sg16
(lp583
I1
asg18
S'[DefinitelyNotMe] Ao no Exorcist - Kyoto Fujouou-hen - 02 VOSTFR [720p].mkv.torrent'
p584
sg20
F-1
sg21
S'/home/xorob0/Downloads'
p585
sg23
F1486809289.1973841
sg24
I0
sg25
S'964c222bce49d3047225a710a3d92856e4cde725'
p586
sg27
I01
sg28
I00
sg29
I00
sg30
(lp587
(dp588
S'send_stats'
p589
I01
sS'fails'
p590
I0
sS'verified'
p591
I00
sS'url'
p592
S'http://t411.download/f53f41ff0afb2c7d652c31b01a8256c0/announce'
p593
sS'fail_limit'
p594
I0
sS'complete_sent'
p595
I00
sS'source'
p596
I1
sS'start_sent'
p597
I00
sS'tier'
p598
I0
sS'updating'
p599
I00
sasg80
Nsg81
I00
sg82
F2
sg83
I00
sba(ideluge.core.torrentmanager
TorrentState
p600
(dp601
g7
F-1
sg8
S'/home/xorob0/Downloads'
p602
sg10
I00
sg11
I-1
sg12
I00
sg13
I-1
sg14
I00
sg15
I28
sg16
(lp603
I1
asg18
S'88a8e466dfceaf7a86bf31c6d6ac6f9337bdfde2'
p604
sg20
F-1
sg21
S'/home/xorob0/Downloads'
p605
sg23
F1487420199.280211
sg24
I137537409
sg25
S'88a8e466dfceaf7a86bf31c6d6ac6f9337bdfde2'
p606
sg27
I01
sg28
I00
sg29
I00
sg30
(lp607
(dp608
S'send_stats'
p609
I01
sS'fails'
p610
I0
sS'verified'
p611
I00
sS'url'
p612
S'udp://tracker.leechers-paradise.org:6969'
p613
sS'fail_limit'
p614
I0
sS'complete_sent'
p615
I00
sS'source'
p616
I4
sS'start_sent'
p617
I00
sS'tier'
p618
I0
sS'updating'
p619
I00
sa(dp620
S'send_stats'
p621
I01
sS'fails'
p622
I0
sS'verified'
p623
I00
sS'url'
p624
S'udp://zer0day.ch:1337'
p625
sS'fail_limit'
p626
I0
sS'complete_sent'
p627
I00
sS'source'
p628
I4
sS'start_sent'
p629
I00
sS'tier'
p630
I0
sS'updating'
p631
I00
sa(dp632
S'send_stats'
p633
I01
sS'fails'
p634
I0
sS'verified'
p635
I00
sS'url'
p636
S'udp://tracker.coppersurfer.tk:6969'
p637
sS'fail_limit'
p638
I0
sS'complete_sent'
p639
I00
sS'source'
p640
I4
sS'start_sent'
p641
I00
sS'tier'
p642
I0
sS'updating'
p643
I00
sa(dp644
S'send_stats'
p645
I01
sS'fails'
p646
I0
sS'verified'
p647
I00
sS'url'
p648
S'udp://public.popcorn-tracker.org:6969'
p649
sS'fail_limit'
p650
I0
sS'complete_sent'
p651
I00
sS'source'
p652
I4
sS'start_sent'
p653
I00
sS'tier'
p654
I0
sS'updating'
p655
I00
sasg80
Nsg81
I00
sg82
F2
sg83
I01
sba(ideluge.core.torrentmanager
TorrentState
p656
(dp657
g7
F-1
sg8
S'/home/xorob0/Downloads'
p658
sg10
I00
sg11
I-1
sg12
I00
sg13
I-1
sg14
I00
sg15
I11
sg16
(lp659
I1
aI1
aI1
aI1
asg18
S'9380866056bf732afb8fb6be60bfe636887167c7'
p660
sg20
F-1
sg21
S'/home/xorob0/Downloads'
p661
sg23
F1486371959.1078761
sg24
I9895936
sg25
S'9380866056bf732afb8fb6be60bfe636887167c7'
p662
sg27
I01
sg28
I00
sg29
I00
sg30
(lp663
(dp664
S'send_stats'
p665
I01
sS'fails'
p666
I0
sS'verified'
p667
I00
sS'url'
p668
S'udp://tracker.leechers-paradise.org:6969'
p669
sS'fail_limit'
p670
I0
sS'complete_sent'
p671
I00
sS'source'
p672
I4
sS'start_sent'
p673
I00
sS'tier'
p674
I0
sS'updating'
p675
I00
sa(dp676
S'send_stats'
p677
I01
sS'fails'
p678
I0
sS'verified'
p679
I00
sS'url'
p680
S'udp://zer0day.ch:1337'
p681
sS'fail_limit'
p682
I0
sS'complete_sent'
p683
I00
sS'source'
p684
I4
sS'start_sent'
p685
I00
sS'tier'
p686
I0
sS'updating'
p687
I00
sa(dp688
S'send_stats'
p689
I01
sS'fails'
p690
I0
sS'verified'
p691
I00
sS'url'
p692
S'udp://tracker.coppersurfer.tk:6969'
p693
sS'fail_limit'
p694
I0
sS'complete_sent'
p695
I00
sS'source'
p696
I4
sS'start_sent'
p697
I00
sS'tier'
p698
I0
sS'updating'
p699
I00
sa(dp700
S'send_stats'
p701
I01
sS'fails'
p702
I0
sS'verified'
p703
I00
sS'url'
p704
S'udp://public.popcorn-tracker.org:6969'
p705
sS'fail_limit'
p706
I0
sS'complete_sent'
p707
I00
sS'source'
p708
I4
sS'start_sent'
p709
I00
sS'tier'
p710
I0
sS'updating'
p711
I00
sasg80
Nsg81
I00
sg82
F2
sg83
I01
sba(ideluge.core.torrentmanager
TorrentState
p712
(dp713
g7
F-1
sg8
S'/home/xorob0/Downloads'
p714
sg10
I00
sg11
I-1
sg12
I00
sg13
I-1
sg14
I00
sg15
I12
sg16
(lp715
I1
asg18
S'[DefinitelyNotMe] Ao no Exorcist - Kyoto Fujouou-hen - 05 VOSTFR [720p].mkv.torrent'
p716
sg20
F-1
sg21
S'/home/xorob0/Downloads'
p717
sg23
F1486809289.1612229
sg24
I0
sg25
S'd933a5782b77093d0bb64edc4eb02c532522b1f6'
p718
sg27
I01
sg28
I00
sg29
I00
sg30
(lp719
(dp720
g301
I0
sg302
S'http://t411.download/f53f41fflol0afb2c7d652c31b01a8256c0/announce'
p721
sasg80
Nsg81
I00
sg82
F2
sg83
I01
sba(ideluge.core.torrentmanager
TorrentState
p722
(dp723
g7
F-1
sg8
S'/home/xorob0/Downloads'
p724
sg10
I00
sg11
I-1
sg12
I00
sg13
I-1
sg14
I00
sg15
I13
sg16
(lp725
I1
asg18
S'KonoSuba Saison 2-04 Vostfr.mp4.torrent'
p726
sg20
F-1
sg21
S'/home/xorob0/Downloads'
p727
sg23
F1489868179.027741
sg24
I0
sg25
S'444f21fc5bfb8bb9e7178a99e76c2f575153ac9b'
p728
sg27
I01
sg28
I00
sg29
I00
sg30
(lp729
(dp730
S'send_stats'
p731
I01
sS'fails'
p732
I0
sS'verified'
p733
I00
sS'url'
p734
S'http://t411.download/8b790bf0e3d6b218bc925f72b784b37f/announce'
p735
sS'fail_limit'
p736
I0
sS'complete_sent'
p737
I00
sS'source'
p738
I1
sS'start_sent'
p739
I00
sS'tier'
p740
I0
sS'updating'
p741
I00
sasg80
Nsg81
I00
sg82
F2
sg83
I01
sba(ideluge.core.torrentmanager
TorrentState
p742
(dp743
g7
F-1
sg8
S'/home/xorob0/Downloads'
p744
sg10
I00
sg11
I-1
sg12
I00
sg13
I-1
sg14
I00
sg15
I14
sg16
(lp745
I1
asg18
S'[DefinitelyNotMe] Ao no Exorcist - Kyoto Fujouou-hen - 03 VOSTFR [720p].mkv.torrent'
p746
sg20
F-1
sg21
S'/home/xorob0/Downloads'
p747
sg23
F1486809289.1791289
sg24
I0
sg25
S'5c748793ac85bdd0c7f5f2a5b452d9b85496fe30'
p748
sg27
I01
sg28
I00
sg29
I00
sg30
(lp749
(dp750
g301
I0
sg302
S'http://t411.download/f53flol41ff0afb2c7d652c31b01a8256c0/announce'
p751
sasg80
Nsg81
I00
sg82
F2
sg83
I01
sba(ideluge.core.torrentmanager
TorrentState
p752
(dp753
g7
F-1
sg8
S'/home/xorob0/Downloads'
p754
sg10
I00
sg11
I-1
sg12
I00
sg13
I-1
sg14
I00
sg15
I34
sg16
(lp755
I1
aI1
aI1
aI1
aI1
asg18
S'd2c07bb6343c319e97153857fb3d17bd7e8794e5'
p756
sg20
F-1
sg21
S'/home/xorob0/Downloads'
p757
sg23
F1486731025.4774971
sg24
I6313946188
sg25
S'd2c07bb6343c319e97153857fb3d17bd7e8794e5'
p758
sg27
I01
sg28
I00
sg29
I00
sg30
(lp759
(dp760
S'send_stats'
p761
I01
sS'fails'
p762
I0
sS'verified'
p763
I00
sS'url'
p764
S'udp://tracker.leechers-paradise.org:6969'
p765
sS'fail_limit'
p766
I0
sS'complete_sent'
p767
I00
sS'source'
p768
I4
sS'start_sent'
p769
I00
sS'tier'
p770
I0
sS'updating'
p771
I00
sa(dp772
S'send_stats'
p773
I01
sS'fails'
p774
I0
sS'verified'
p775
I00
sS'url'
p776
S'udp://zer0day.ch:1337'
p777
sS'fail_limit'
p778
I0
sS'complete_sent'
p779
I00
sS'source'
p780
I4
sS'start_sent'
p781
I00
sS'tier'
p782
I0
sS'updating'
p783
I00
sa(dp784
S'send_stats'
p785
I01
sS'fails'
p786
I0
sS'verified'
p787
I00
sS'url'
p788
S'udp://tracker.coppersurfer.tk:6969'
p789
sS'fail_limit'
p790
I0
sS'complete_sent'
p791
I00
sS'source'
p792
I4
sS'start_sent'
p793
I00
sS'tier'
p794
I0
sS'updating'
p795
I00
sa(dp796
S'send_stats'
p797
I01
sS'fails'
p798
I0
sS'verified'
p799
I00
sS'url'
p800
S'udp://public.popcorn-tracker.org:6969'
p801
sS'fail_limit'
p802
I0
sS'complete_sent'
p803
I00
sS'source'
p804
I4
sS'start_sent'
p805
I00
sS'tier'
p806
I0
sS'updating'
p807
I00
sasg80
Nsg81
I00
sg82
F2
sg83
I01
sba(ideluge.core.torrentmanager
TorrentState
p808
(dp809
g7
F-1
sg8
S'/home/xorob0/Downloads'
p810
sg10
I00
sg11
I-1
sg12
I00
sg13
I-1
sg14
I00
sg15
I23
sg16
(lp811
I1
asg18
S'KonoSuba Saison 2-03 Vostfr.mp4.torrent'
p812
sg20
F-1
sg21
S'/home/xorob0/Downloads'
p813
sg23
F1489868166.5572691
sg24
I0
sg25
S'4d64b2f649133785456eb09ad8e896c5777f4712'
p814
sg27
I01
sg28
I00
sg29
I00
sg30
(lp815
(dp816
S'send_stats'
p817
I01
sS'fails'
p818
I0
sS'verified'
p819
I00
sS'url'
p820
S'http://t411.download/8b790bf0e3d6b218bc925f72b784b37f/announce'
p821
sS'fail_limit'
p822
I0
sS'complete_sent'
p823
I00
sS'source'
p824
I1
sS'start_sent'
p825
I00
sS'tier'
p826
I0
sS'updating'
p827
I00
sasg80
Nsg81
I00
sg82
F2
sg83
I01
sba(ideluge.core.torrentmanager
TorrentState
p828
(dp829
g7
F-1
sg8
S'/home/xorob0/Downloads'
p830
sg10
I00
sg11
I-1
sg12
I00
sg13
I-1
sg14
I00
sg15
I15
sg16
(lp831
I1
aI1
aI1
aI1
aI1
aI1
aI1
aI1
aI1
aI1
aI1
aI1
aI1
aI1
aI1
asg18
S'Elfen.Lied.Vostfr.720p.torrent'
p832
sg20
F-1
sg21
S'/home/xorob0/Downloads'
p833
sg23
F1486999595.907223
sg24
I4565360
sg25
S'74612930953784b3171527c09a89d18246698014'
p834
sg27
I01
sg28
I00
sg29
I00
sg30
(lp835
(dp836
S'tier'
p837
I0
sS'url'
p838
S'http://t411.download/96flol02dd4de50662726825c2af9d47e7d/announce'
p839
sasg80
Nsg81
I00
sg82
F2
sg83
I01
sba(ideluge.core.torrentmanager
TorrentState
p840
(dp841
g7
F-1
sg8
S'/home/xorob0/Downloads'
p842
sg10
I00
sg11
I-1
sg12
I00
sg13
I-1
sg14
I00
sg15
I16
sg16
(lp843
I1
aI1
asg18
S'e8ae47d42927bad6f11547469f93cc4248f36525'
p844
sg20
F-1
sg21
S'/home/xorob0/Downloads'
p845
sg23
F1489864244.012958
sg24
I136610326
sg25
S'e8ae47d42927bad6f11547469f93cc4248f36525'
p846
sg27
I01
sg28
I00
sg29
I00
sg30
(lp847
(dp848
S'send_stats'
p849
I01
sS'fails'
p850
I0
sS'verified'
p851
I00
sS'url'
p852
S'udp://tracker.leechers-paradise.org:6969'
p853
sS'fail_limit'
p854
I0
sS'complete_sent'
p855
I00
sS'source'
p856
I4
sS'start_sent'
p857
I00
sS'tier'
p858
I0
sS'updating'
p859
I00
sa(dp860
S'send_stats'
p861
I01
sS'fails'
p862
I0
sS'verified'
p863
I00
sS'url'
p864
S'udp://zer0day.ch:1337'
p865
sS'fail_limit'
p866
I0
sS'complete_sent'
p867
I00
sS'source'
p868
I4
sS'start_sent'
p869
I00
sS'tier'
p870
I0
sS'updating'
p871
I00
sa(dp872
S'send_stats'
p873
I01
sS'fails'
p874
I0
sS'verified'
p875
I00
sS'url'
p876
S'udp://tracker.coppersurfer.tk:6969'
p877
sS'fail_limit'
p878
I0
sS'complete_sent'
p879
I00
sS'source'
p880
I4
sS'start_sent'
p881
I00
sS'tier'
p882
I0
sS'updating'
p883
I00
sa(dp884
S'send_stats'
p885
I01
sS'fails'
p886
I0
sS'verified'
p887
I00
sS'url'
p888
S'udp://public.popcorn-tracker.org:6969'
p889
sS'fail_limit'
p890
I0
sS'complete_sent'
p891
I00
sS'source'
p892
I4
sS'start_sent'
p893
I00
sS'tier'
p894
I0
sS'updating'
p895
I00
sasg80
Nsg81
I00
sg82
F2
sg83
I01
sba(ideluge.core.torrentmanager
TorrentState
p896
(dp897
g7
F-1
sg8
S'/home/xorob0/Downloads'
p898
sg10
I00
sg11
I-1
sg12
I00
sg13
I-1
sg14
I00
sg15
I17
sg16
(lp899
I1
aI1
aI1
aI1
aI1
aI1
aI1
aI1
aI1
aI1
aI1
asg18
S'KonoSuba-1.torrent'
p900
sg20
F-1
sg21
S'/home/xorob0/Downloads'
p901
sg23
F1488372345.543611
sg24
I0
sg25
S'00c78360c71bdf3d675991bfb995e221f5da88b6'
p902
sg27
I01
sg28
I00
sg29
I00
sg30
(lp903
(dp904
S'tier'
p905
I0
sS'url'
p906
S'http://t411.download/8b790lolbf0e3d6b218bc925f72b784b37f/announce'
p907
sasg80
Nsg81
I00
sg82
F2
sg83
I01
sba(ideluge.core.torrentmanager
TorrentState
p908
(dp909
g7
F-1
sg8
S'/home/xorob0/Downloads'
p910
sg10
I00
sg11
I-1
sg12
I00
sg13
I-1
sg14
I00
sg15
I36
sg16
(lp911
I1
asg18
S'6d49ff84a616c511d7546281e353cf1102501445'
p912
sg20
F-1
sg21
S'/home/xorob0/Downloads'
p913
sg23
F1486731308.925571
sg24
I0
sg25
S'6d49ff84a616c511d7546281e353cf1102501445'
p914
sg27
I01
sg28
I00
sg29
I00
sg30
(lp915
(dp916
S'send_stats'
p917
I01
sS'fails'
p918
I0
sS'verified'
p919
I00
sS'url'
p920
S'udp://tracker.leechers-paradise.org:6969'
p921
sS'fail_limit'
p922
I0
sS'complete_sent'
p923
I00
sS'source'
p924
I4
sS'start_sent'
p925
I00
sS'tier'
p926
I0
sS'updating'
p927
I00
sa(dp928
S'send_stats'
p929
I01
sS'fails'
p930
I0
sS'verified'
p931
I00
sS'url'
p932
S'udp://zer0day.ch:1337'
p933
sS'fail_limit'
p934
I0
sS'complete_sent'
p935
I00
sS'source'
p936
I4
sS'start_sent'
p937
I00
sS'tier'
p938
I0
sS'updating'
p939
I00
sa(dp940
S'send_stats'
p941
I01
sS'fails'
p942
I0
sS'verified'
p943
I00
sS'url'
p944
S'udp://tracker.coppersurfer.tk:6969'
p945
sS'fail_limit'
p946
I0
sS'complete_sent'
p947
I00
sS'source'
p948
I4
sS'start_sent'
p949
I00
sS'tier'
p950
I0
sS'updating'
p951
I00
sa(dp952
S'send_stats'
p953
I01
sS'fails'
p954
I0
sS'verified'
p955
I00
sS'url'
p956
S'udp://public.popcorn-tracker.org:6969'
p957
sS'fail_limit'
p958
I0
sS'complete_sent'
p959
I00
sS'source'
p960
I4
sS'start_sent'
p961
I00
sS'tier'
p962
I0
sS'updating'
p963
I00
sasg80
Nsg81
I00
sg82
F2
sg83
I01
sba(ideluge.core.torrentmanager
TorrentState
p964
(dp965
g7
F-1
sg8
S'/home/xorob0/Downloads'
p966
sg10
I00
sg11
I-1
sg12
I00
sg13
I-1
sg14
I00
sg15
I18
sg16
(lp967
I1
aI1
aI1
aI1
aI1
aI1
aI1
aI1
aI1
aI1
aI1
aI1
aI1
aI1
aI1
aI1
aI1
aI1
aI1
aI1
aI1
aI1
aI1
aI1
aI1
aI1
asg18
S'Steins.Gate.S01.MULTI.1080p.BluRay.AAC.x265-Saeroshi.torrent'
p968
sg20
F-1
sg21
S'/home/xorob0/Downloads'
p969
sg23
F1487346821.6109769
sg24
I3951587
sg25
S'af4562a45ed5ef121bcc6fc3e62721c88760e897'
p970
sg27
I01
sg28
I00
sg29
I00
sg30
(lp971
(dp972
S'send_stats'
p973
I01
sS'fails'
p974
I0
sS'verified'
p975
I00
sS'url'
p976
S'http://t411.download/96f02dd4de50662726825c2af9d47e7d/announce'
p977
sS'fail_limit'
p978
I0
sS'complete_sent'
p979
I00
sS'source'
p980
I1
sS'start_sent'
p981
I00
sS'tier'
p982
I0
sS'updating'
p983
I00
sasg80
Nsg81
I00
sg82
F2
sg83
I01
sba(ideluge.core.torrentmanager
TorrentState
p984
(dp985
g7
F-1
sg8
S'/home/xorob0/Downloads'
p986
sg10
I00
sg11
I-1
sg12
I00
sg13
I-1
sg14
I00
sg15
I29
sg16
(lp987
I1
asg18
S'0b1977291f963eeca676afa2e046868b203b9597'
p988
sg20
F-1
sg21
S'/home/xorob0/Downloads'
p989
sg23
F1487420191.764061
sg24
I3358720
sg25
S'0b1977291f963eeca676afa2e046868b203b9597'
p990
sg27
I01
sg28
I00
sg29
I00
sg30
(lp991
(dp992
S'send_stats'
p993
I01
sS'fails'
p994
I0
sS'verified'
p995
I00
sS'url'
p996
S'udp://tracker.leechers-paradise.org:6969'
p997
sS'fail_limit'
p998
I0
sS'complete_sent'
p999
I00
sS'source'
p1000
I4
sS'start_sent'
p1001
I00
sS'tier'
p1002
I0
sS'updating'
p1003
I00
sa(dp1004
S'send_stats'
p1005
I01
sS'fails'
p1006
I0
sS'verified'
p1007
I00
sS'url'
p1008
S'udp://zer0day.ch:1337'
p1009
sS'fail_limit'
p1010
I0
sS'complete_sent'
p1011
I00
sS'source'
p1012
I4
sS'start_sent'
p1013
I00
sS'tier'
p1014
I0
sS'updating'
p1015
I00
sa(dp1016
S'send_stats'
p1017
I01
sS'fails'
p1018
I0
sS'verified'
p1019
I00
sS'url'
p1020
S'udp://tracker.coppersurfer.tk:6969'
p1021
sS'fail_limit'
p1022
I0
sS'complete_sent'
p1023
I00
sS'source'
p1024
I4
sS'start_sent'
p1025
I00
sS'tier'
p1026
I0
sS'updating'
p1027
I00
sa(dp1028
S'send_stats'
p1029
I01
sS'fails'
p1030
I0
sS'verified'
p1031
I00
sS'url'
p1032
S'udp://public.popcorn-tracker.org:6969'
p1033
sS'fail_limit'
p1034
I0
sS'complete_sent'
p1035
I00
sS'source'
p1036
I4
sS'start_sent'
p1037
I00
sS'tier'
p1038
I0
sS'updating'
p1039
I00
sasg80
Nsg81
I00
sg82
F2
sg83
I01
sba(ideluge.core.torrentmanager
TorrentState
p1040
(dp1041
g7
F-1
sg8
S'/home/xorob0/Downloads'
p1042
sg10
I00
sg11
I-1
sg12
I00
sg13
I-1
sg14
I00
sg15
I19
sg16
(lp1043
I1
aI1
aI1
aI1
aI1
aI1
aI1
aI1
aI1
aI1
aI1
aI1
aI1
aI1
aI1
aI1
aI1
aI1
aI1
aI1
aI1
aI1
aI1
aI1
aI1
aI1
aI1
asg18
S'Higurashi No Naku Koro Ni + Oav Nekogoroshi hen.torrent'
p1044
sg20
F-1
sg21
S'/home/xorob0/Downloads'
p1045
sg23
F1486999603.0695441
sg24
I0
sg25
S'83742959cca35ec83710b72e7293bd5944732b4e'
p1046
sg27
I01
sg28
I00
sg29
I00
sg30
(lp1047
(dp1048
g837
I0
sg838
S'http://t411.download/96flol02dd4de50662726825c2af9d47e7d/announce'
p1049
sasg80
Nsg81
I00
sg82
F2
sg83
I01
sba(ideluge.core.torrentmanager
TorrentState
p1050
(dp1051
g7
F-1
sg8
S'/home/xorob0/Downloads'
p1052
sg10
I00
sg11
I-1
sg12
I00
sg13
I-1
sg14
I00
sg15
I20
sg16
(lp1053
I1
asg18
S'[DefinitelyNotMe] Ao no Exorcist - Kyoto Fujouou-hen - 04 VOSTFR [720p].mkv.torrent'
p1054
sg20
F-1
sg21
S'/home/xorob0/Downloads'
p1055
sg23
F1486809289.1424639
sg24
I0
sg25
S'3d4472cfd196a9c49d50445818e411634b7992e0'
p1056
sg27
I01
sg28
I00
sg29
I00
sg30
(lp1057
(dp1058
g301
I0
sg302
S'http://t411.download/f53f41ff0aflolb2c7d652c31b01a8256c0/announce'
p1059
sasg80
Nsg81
I00
sg82
F2
sg83
I01
sba(ideluge.core.torrentmanager
TorrentState
p1060
(dp1061
g7
F-1
sg8
S'/home/xorob0/Downloads'
p1062
sg10
I00
sg11
I-1
sg12
I00
sg13
I-1
sg14
I00
sg15
I42
sg16
(lp1063
I0
aI0
aI0
aI0
aI0
aI0
aI0
aI0
aI0
aI0
aI0
aI0
aI0
aI0
aI0
aI0
aI0
aI0
aI0
aI0
aI0
aI0
aI0
aI0
aI0
aI0
aI0
aI0
aI0
aI0
aI0
aI0
aI0
aI0
aI0
aI0
aI0
aI0
aI0
aI0
aI0
aI0
aI0
aI0
aI0
aI0
aI0
aI0
aI0
aI0
aI0
aI0
aI0
aI0
aI0
aI0
aI0
aI0
aI0
aI0
aI0
aI0
aI0
aI0
aI0
aI0
aI0
aI0
aI0
aI0
aI0
aI0
aI0
aI0
aI0
aI0
aI0
aI1
aI1
aI1
aI1
aI1
aI1
aI1
aI1
aI1
aI1
aI1
aI1
aI1
aI1
aI1
aI1
aI1
aI1
aI7
aI1
aI1
aI1
aI1
aI1
aI1
aI7
aI1
aI1
aI1
aI1
aI1
aI1
aI1
aI1
aI1
aI1
aI1
aI1
aI1
aI1
aI1
aI1
aI1
aI1
aI1
aI1
aI1
aI1
aI1
aI1
aI1
aI1
aI1
aI1
aI1
aI1
aI1
aI1
aI1
aI1
aI1
aI1
aI1
aI1
aI1
aI1
aI1
aI1
aI1
aI1
aI1
aI1
aI1
aI1
aI1
aI1
aI1
aI1
aI1
aI1
aI1
aI1
aI1
aI1
aI1
aI1
aI1
aI1
aI1
aI1
aI1
aI1
aI1
aI1
aI1
aI1
aI1
aI1
aI1
aI1
aI1
aI1
aI1
aI1
aI1
aI1
aI1
aI1
aI1
aI1
aI1
aI1
aI1
aI1
aI1
aI1
asg18
S'02576ba7cf2d093e3f0f463a595b316d83c8f00f'
p1064
sg20
F-1
sg21
S'/home/xorob0/Downloads'
p1065
sg23
F1488738196.002708
sg24
I0
sg25
S'02576ba7cf2d093e3f0f463a595b316d83c8f00f'
p1066
sg27
I01
sg28
I00
sg29
I00
sg30
(lp1067
(dp1068
S'send_stats'
p1069
I01
sS'fails'
p1070
I0
sS'verified'
p1071
I00
sS'url'
p1072
S'udp://tracker.leechers-paradise.org:6969'
p1073
sS'fail_limit'
p1074
I0
sS'complete_sent'
p1075
I00
sS'source'
p1076
I4
sS'start_sent'
p1077
I00
sS'tier'
p1078
I0
sS'updating'
p1079
I00
sa(dp1080
S'send_stats'
p1081
I01
sS'fails'
p1082
I0
sS'verified'
p1083
I00
sS'url'
p1084
S'udp://zer0day.ch:1337'
p1085
sS'fail_limit'
p1086
I0
sS'complete_sent'
p1087
I00
sS'source'
p1088
I4
sS'start_sent'
p1089
I00
sS'tier'
p1090
I0
sS'updating'
p1091
I00
sa(dp1092
S'send_stats'
p1093
I01
sS'fails'
p1094
I0
sS'verified'
p1095
I00
sS'url'
p1096
S'udp://tracker.coppersurfer.tk:6969'
p1097
sS'fail_limit'
p1098
I0
sS'complete_sent'
p1099
I00
sS'source'
p1100
I4
sS'start_sent'
p1101
I00
sS'tier'
p1102
I0
sS'updating'
p1103
I00
sa(dp1104
S'send_stats'
p1105
I01
sS'fails'
p1106
I0
sS'verified'
p1107
I00
sS'url'
p1108
S'udp://public.popcorn-tracker.org:6969'
p1109
sS'fail_limit'
p1110
I0
sS'complete_sent'
p1111
I00
sS'source'
p1112
I4
sS'start_sent'
p1113
I00
sS'tier'
p1114
I0
sS'updating'
p1115
I00
sasg80
Nsg81
I00
sg82
F2
sg83
I00
sba(ideluge.core.torrentmanager
TorrentState
p1116
(dp1117
g7
F-1
sg8
S'/home/xorob0/Downloads'
p1118
sg10
I00
sg11
I-1
sg12
I00
sg13
I-1
sg14
I00
sg15
I21
sg16
(lp1119
I1
aI1
aI1
asg18
S'98b40950a17ab644f155062d35de471a933608dd'
p1120
sg20
F-1
sg21
S'/home/xorob0/Downloads'
p1121
sg23
F1489864158.4075279
sg24
I561526832
sg25
S'98b40950a17ab644f155062d35de471a933608dd'
p1122
sg27
I01
sg28
I00
sg29
I00
sg30
(lp1123
(dp1124
S'send_stats'
p1125
I01
sS'fails'
p1126
I0
sS'verified'
p1127
I00
sS'url'
p1128
S'udp://tracker.leechers-paradise.org:6969'
p1129
sS'fail_limit'
p1130
I0
sS'complete_sent'
p1131
I00
sS'source'
p1132
I4
sS'start_sent'
p1133
I00
sS'tier'
p1134
I0
sS'updating'
p1135
I00
sa(dp1136
S'send_stats'
p1137
I01
sS'fails'
p1138
I0
sS'verified'
p1139
I00
sS'url'
p1140
S'udp://zer0day.ch:1337'
p1141
sS'fail_limit'
p1142
I0
sS'complete_sent'
p1143
I00
sS'source'
p1144
I4
sS'start_sent'
p1145
I00
sS'tier'
p1146
I0
sS'updating'
p1147
I00
sa(dp1148
S'send_stats'
p1149
I01
sS'fails'
p1150
I0
sS'verified'
p1151
I00
sS'url'
p1152
S'udp://tracker.coppersurfer.tk:6969'
p1153
sS'fail_limit'
p1154
I0
sS'complete_sent'
p1155
I00
sS'source'
p1156
I4
sS'start_sent'
p1157
I00
sS'tier'
p1158
I0
sS'updating'
p1159
I00
sa(dp1160
S'send_stats'
p1161
I01
sS'fails'
p1162
I0
sS'verified'
p1163
I00
sS'url'
p1164
S'udp://public.popcorn-tracker.org:6969'
p1165
sS'fail_limit'
p1166
I0
sS'complete_sent'
p1167
I00
sS'source'
p1168
I4
sS'start_sent'
p1169
I00
sS'tier'
p1170
I0
sS'updating'
p1171
I00
sasg80
Nsg81
I00
sg82
F2
sg83
I01
sba(ideluge.core.torrentmanager
TorrentState
p1172
(dp1173
g7
F-1
sg8
S'/home/xorob0/Downloads'
p1174
sg10
I00
sg11
I-1
sg12
I00
sg13
I-1
sg14
I00
sg15
I32
sg16
(lp1175
I1
asg18
S'5894f93d68f3be772a4b2b8e7a1b514cc93bd7f9'
p1176
sg20
F-1
sg21
S'/home/xorob0/Downloads'
p1177
sg23
F1486731192.682755
sg24
I86373918
sg25
S'5894f93d68f3be772a4b2b8e7a1b514cc93bd7f9'
p1178
sg27
I01
sg28
I00
sg29
I00
sg30
(lp1179
(dp1180
S'send_stats'
p1181
I01
sS'fails'
p1182
I0
sS'verified'
p1183
I00
sS'url'
p1184
S'udp://tracker.leechers-paradise.org:6969'
p1185
sS'fail_limit'
p1186
I0
sS'complete_sent'
p1187
I00
sS'source'
p1188
I4
sS'start_sent'
p1189
I00
sS'tier'
p1190
I0
sS'updating'
p1191
I00
sa(dp1192
S'send_stats'
p1193
I01
sS'fails'
p1194
I0
sS'verified'
p1195
I00
sS'url'
p1196
S'udp://zer0day.ch:1337'
p1197
sS'fail_limit'
p1198
I0
sS'complete_sent'
p1199
I00
sS'source'
p1200
I4
sS'start_sent'
p1201
I00
sS'tier'
p1202
I0
sS'updating'
p1203
I00
sa(dp1204
S'send_stats'
p1205
I01
sS'fails'
p1206
I0
sS'verified'
p1207
I00
sS'url'
p1208
S'udp://tracker.coppersurfer.tk:6969'
p1209
sS'fail_limit'
p1210
I0
sS'complete_sent'
p1211
I00
sS'source'
p1212
I4
sS'start_sent'
p1213
I00
sS'tier'
p1214
I0
sS'updating'
p1215
I00
sa(dp1216
S'send_stats'
p1217
I01
sS'fails'
p1218
I0
sS'verified'
p1219
I00
sS'url'
p1220
S'udp://public.popcorn-tracker.org:6969'
p1221
sS'fail_limit'
p1222
I0
sS'complete_sent'
p1223
I00
sS'source'
p1224
I4
sS'start_sent'
p1225
I00
sS'tier'
p1226
I0
sS'updating'
p1227
I00
sasg80
Nsg81
I00
sg82
F2
sg83
I01
sba(ideluge.core.torrentmanager
TorrentState
p1228
(dp1229
g7
F-1
sg8
S'/home/xorob0/Downloads'
p1230
sg10
I00
sg11
I-1
sg12
I00
sg13
I-1
sg14
I00
sg15
I22
sg16
(lp1231
I1
aI1
aI1
aI1
aI1
aI1
aI1
aI1
aI1
aI1
aI1
aI1
asg18
S'[Manga-FR] No Game No Life iNTEGRALE VOSTFR [BLURAY][1080p][h265_10b].torrent'
p1232
sg20
F-1
sg21
S'/home/xorob0/Downloads'
p1233
sg23
F1487358730.5373781
sg24
I0
sg25
S'd20e1bb48a717c1b9d1c143e22e0271c586c6cda'
p1234
sg27
I01
sg28
I00
sg29
I00
sg30
(lp1235
(dp1236
S'tier'
p1237
I0
sS'url'
p1238
S'http://t411.download/96f02lodd4de50662726825c2af9d47e7d/announce'
p1239
sasg80
Nsg81
I00
sg82
F2
sg83
I01
sba(ideluge.core.torrentmanager
TorrentState
p1240
(dp1241
g7
F-1
sg8
S'/home/xorob0/Downloads'
p1242
sg10
I00
sg11
I-1
sg12
I00
sg13
I-1
sg14
I00
sg15
I41
sg16
(lp1243
I1
asg18
S'e05c897bd8d803ab6841bd28938bb3ca248f0545'
p1244
sg20
F-1
sg21
S'/home/xorob0/Downloads'
p1245
sg23
F1487423099.0022991
sg24
I98304
sg25
S'e05c897bd8d803ab6841bd28938bb3ca248f0545'
p1246
sg27
I01
sg28
I00
sg29
I00
sg30
(lp1247
(dp1248
S'send_stats'
p1249
I01
sS'fails'
p1250
I0
sS'verified'
p1251
I00
sS'url'
p1252
S'udp://tracker.leechers-paradise.org:6969'
p1253
sS'fail_limit'
p1254
I0
sS'complete_sent'
p1255
I00
sS'source'
p1256
I4
sS'start_sent'
p1257
I00
sS'tier'
p1258
I0
sS'updating'
p1259
I00
sa(dp1260
S'send_stats'
p1261
I01
sS'fails'
p1262
I0
sS'verified'
p1263
I00
sS'url'
p1264
S'udp://zer0day.ch:1337'
p1265
sS'fail_limit'
p1266
I0
sS'complete_sent'
p1267
I00
sS'source'
p1268
I4
sS'start_sent'
p1269
I00
sS'tier'
p1270
I0
sS'updating'
p1271
I00
sa(dp1272
S'send_stats'
p1273
I01
sS'fails'
p1274
I0
sS'verified'
p1275
I00
sS'url'
p1276
S'udp://tracker.coppersurfer.tk:6969'
p1277
sS'fail_limit'
p1278
I0
sS'complete_sent'
p1279
I00
sS'source'
p1280
I4
sS'start_sent'
p1281
I00
sS'tier'
p1282
I0
sS'updating'
p1283
I00
sa(dp1284
S'send_stats'
p1285
I01
sS'fails'
p1286
I0
sS'verified'
p1287
I00
sS'url'
p1288
S'udp://public.popcorn-tracker.org:6969'
p1289
sS'fail_limit'
p1290
I0
sS'complete_sent'
p1291
I00
sS'source'
p1292
I4
sS'start_sent'
p1293
I00
sS'tier'
p1294
I0
sS'updating'
p1295
I00
sasg80
Nsg81
I00
sg82
F2
sg83
I00
sba(ideluge.core.torrentmanager
TorrentState
p1296
(dp1297
g7
F-1
sg8
S'/home/xorob0/Downloads'
p1298
sg10
I00
sg11
I-1
sg12
I00
sg13
I-1
sg14
I00
sg15
I-1
sg16
(lp1299
I1
aI1
aI1
aI1
aI1
asg18
S'7ef0145bc19f53251df9ff7e11a795e9e088b65c'
p1300
sg20
F-1
sg21
S'/home/xorob0/Downloads'
p1301
sg23
F1490019082.382391
sg24
I196191339
sg25
g1300
sg27
I01
sg28
I00
sg29
I00
sg30
(lp1302
(dp1303
S'send_stats'
p1304
I01
sS'fails'
p1305
I0
sS'verified'
p1306
I00
sS'url'
p1307
S'udp://tracker.leechers-paradise.org:6969'
p1308
sS'fail_limit'
p1309
I0
sS'complete_sent'
p1310
I00
sS'source'
p1311
I4
sS'start_sent'
p1312
I00
sS'tier'
p1313
I0
sS'updating'
p1314
I00
sa(dp1315
S'send_stats'
p1316
I01
sS'fails'
p1317
I0
sS'verified'
p1318
I00
sS'url'
p1319
S'udp://zer0day.ch:1337'
p1320
sS'fail_limit'
p1321
I0
sS'complete_sent'
p1322
I00
sS'source'
p1323
I4
sS'start_sent'
p1324
I00
sS'tier'
p1325
I0
sS'updating'
p1326
I00
sa(dp1327
S'send_stats'
p1328
I01
sS'fails'
p1329
I0
sS'verified'
p1330
I00
sS'url'
p1331
S'udp://tracker.coppersurfer.tk:6969'
p1332
sS'fail_limit'
p1333
I0
sS'complete_sent'
p1334
I00
sS'source'
p1335
I4
sS'start_sent'
p1336
I00
sS'tier'
p1337
I0
sS'updating'
p1338
I00
sa(dp1339
S'send_stats'
p1340
I01
sS'fails'
p1341
I0
sS'verified'
p1342
I00
sS'url'
p1343
S'udp://public.popcorn-tracker.org:6969'
p1344
sS'fail_limit'
p1345
I0
sS'complete_sent'
p1346
I00
sS'source'
p1347
I4
sS'start_sent'
p1348
I00
sS'tier'
p1349
I0
sS'updating'
p1350
I00
sasg80
S'magnet:?xt=urn:btih:7ef0145bc19f53251df9ff7e11a795e9e088b65c&dn=Windows+7+SP1+Ultimate+%2864+Bit%29&tr=udp%3A%2F%2Ftracker.leechers-paradise.org%3A6969&tr=udp%3A%2F%2Fzer0day.ch%3A1337&tr=udp%3A%2F%2Ftracker.coppersurfer.tk%3A6969&tr=udp%3A%2F%2Fpublic.popcorn-tracker.org%3A6969'
p1351
sg81
I00
sg82
F2
sg83
I01
sba(ideluge.core.torrentmanager
TorrentState
p1352
(dp1353
g7
F-1
sg8
S'/home/xorob0/Downloads'
p1354
sg10
I00
sg11
I-1
sg12
I00
sg13
I-1
sg14
I00
sg15
I30
sg16
(lp1355
I1
asg18
S'e32bd6a851a8126880828574dd7e0c19995a82e9'
p1356
sg20
F-1
sg21
S'/home/xorob0/Downloads'
p1357
sg23
F1487420150.7026889
sg24
I195020449
sg25
S'e32bd6a851a8126880828574dd7e0c19995a82e9'
p1358
sg27
I01
sg28
I00
sg29
I00
sg30
(lp1359
(dp1360
S'send_stats'
p1361
I01
sS'fails'
p1362
I0
sS'verified'
p1363
I00
sS'url'
p1364
S'udp://tracker.leechers-paradise.org:6969'
p1365
sS'fail_limit'
p1366
I0
sS'complete_sent'
p1367
I00
sS'source'
p1368
I4
sS'start_sent'
p1369
I00
sS'tier'
p1370
I0
sS'updating'
p1371
I00
sa(dp1372
S'send_stats'
p1373
I01
sS'fails'
p1374
I0
sS'verified'
p1375
I00
sS'url'
p1376
S'udp://zer0day.ch:1337'
p1377
sS'fail_limit'
p1378
I0
sS'complete_sent'
p1379
I00
sS'source'
p1380
I4
sS'start_sent'
p1381
I00
sS'tier'
p1382
I0
sS'updating'
p1383
I00
sa(dp1384
S'send_stats'
p1385
I01
sS'fails'
p1386
I0
sS'verified'
p1387
I00
sS'url'
p1388
S'udp://tracker.coppersurfer.tk:6969'
p1389
sS'fail_limit'
p1390
I0
sS'complete_sent'
p1391
I00
sS'source'
p1392
I4
sS'start_sent'
p1393
I00
sS'tier'
p1394
I0
sS'updating'
p1395
I00
sa(dp1396
S'send_stats'
p1397
I01
sS'fails'
p1398
I0
sS'verified'
p1399
I00
sS'url'
p1400
S'udp://public.popcorn-tracker.org:6969'
p1401
sS'fail_limit'
p1402
I0
sS'complete_sent'
p1403
I00
sS'source'
p1404
I4
sS'start_sent'
p1405
I00
sS'tier'
p1406
I0
sS'updating'
p1407
I00
sasg80
Nsg81
I00
sg82
F2
sg83
I01
sba(ideluge.core.torrentmanager
TorrentState
p1408
(dp1409
g7
F-1
sg8
S'/home/xorob0/Downloads'
p1410
sg10
I00
sg11
I-1
sg12
I00
sg13
I-1
sg14
I00
sg15
I6
sg16
(lp1411
I1
aI1
aI1
aI1
aI1
aI1
aI1
aI1
aI1
aI1
aI1
aI1
aI1
aI1
aI1
aI1
aI1
aI1
aI1
aI1
aI1
aI1
aI1
aI1
aI1
aI1
aI1
aI1
asg18
S'Higurashi no Naku Koro Ni.torrent'
p1412
sg20
F-1
sg21
S'/home/xorob0/Downloads'
p1413
sg23
F1487001266.8551431
sg24
I0
sg25
S'5f5fd8f991157edd6391c7e757a998e0177b3041'
p1414
sg27
I01
sg28
I00
sg29
I00
sg30
(lp1415
(dp1416
g837
I0
sg838
S'http://t411.download/96f0lol2dd4de50662726825c2af9d47e7d/announce'
p1417
sasg80
Nsg81
I00
sg82
F2
sg83
I01
sba(ideluge.core.torrentmanager
TorrentState
p1418
(dp1419
g7
F-1
sg8
S'/home/xorob0/Downloads'
p1420
sg10
I01
sg11
I-1
sg12
I00
sg13
I-1
sg14
I00
sg15
I40
sg16
(lp1421
I1
asg18
S'8b5445d72e3045c82f4e55447c5be2c71f84c1b9'
p1422
sg20
F-1
sg21
S'/home/xorob0/Downloads'
p1423
sg23
F1487419520.5446639
sg24
I0
sg25
S'8b5445d72e3045c82f4e55447c5be2c71f84c1b9'
p1424
sg27
I01
sg28
I00
sg29
I00
sg30
(lp1425
(dp1426
S'send_stats'
p1427
I01
sS'fails'
p1428
I0
sS'verified'
p1429
I00
sS'url'
p1430
S'udp://tracker.leechers-paradise.org:6969'
p1431
sS'fail_limit'
p1432
I0
sS'complete_sent'
p1433
I00
sS'source'
p1434
I4
sS'start_sent'
p1435
I00
sS'tier'
p1436
I0
sS'updating'
p1437
I00
sa(dp1438
S'send_stats'
p1439
I01
sS'fails'
p1440
I0
sS'verified'
p1441
I00
sS'url'
p1442
S'udp://zer0day.ch:1337'
p1443
sS'fail_limit'
p1444
I0
sS'complete_sent'
p1445
I00
sS'source'
p1446
I4
sS'start_sent'
p1447
I00
sS'tier'
p1448
I0
sS'updating'
p1449
I00
sa(dp1450
S'send_stats'
p1451
I01
sS'fails'
p1452
I0
sS'verified'
p1453
I00
sS'url'
p1454
S'udp://tracker.coppersurfer.tk:6969'
p1455
sS'fail_limit'
p1456
I0
sS'complete_sent'
p1457
I00
sS'source'
p1458
I4
sS'start_sent'
p1459
I00
sS'tier'
p1460
I0
sS'updating'
p1461
I00
sa(dp1462
S'send_stats'
p1463
I01
sS'fails'
p1464
I0
sS'verified'
p1465
I00
sS'url'
p1466
S'udp://public.popcorn-tracker.org:6969'
p1467
sS'fail_limit'
p1468
I0
sS'complete_sent'
p1469
I00
sS'source'
p1470
I4
sS'start_sent'
p1471
I00
sS'tier'
p1472
I0
sS'updating'
p1473
I00
sasg80
Nsg81
I00
sg82
F2
sg83
I00
sba(ideluge.core.torrentmanager
TorrentState
p1474
(dp1475
g7
F-1
sg8
S'/home/xorob0/Downloads'
p1476
sg10
I01
sg11
I-1
sg12
I00
sg13
I-1
sg14
I00
sg15
I31
sg16
(lp1477
I1
asg18
S'552ff628202e6c3624a82cae1182d28452bec16d'
p1478
sg20
F-1
sg21
S'/home/xorob0/Downloads'
p1479
sg23
F1487420163.2729681
sg24
I34150222
sg25
S'552ff628202e6c3624a82cae1182d28452bec16d'
p1480
sg27
I01
sg28
I00
sg29
I00
sg30
(lp1481
(dp1482
S'send_stats'
p1483
I01
sS'fails'
p1484
I0
sS'verified'
p1485
I00
sS'url'
p1486
S'udp://tracker.leechers-paradise.org:6969'
p1487
sS'fail_limit'
p1488
I0
sS'complete_sent'
p1489
I00
sS'source'
p1490
I4
sS'start_sent'
p1491
I00
sS'tier'
p1492
I0
sS'updating'
p1493
I00
sa(dp1494
S'send_stats'
p1495
I01
sS'fails'
p1496
I0
sS'verified'
p1497
I00
sS'url'
p1498
S'udp://zer0day.ch:1337'
p1499
sS'fail_limit'
p1500
I0
sS'complete_sent'
p1501
I00
sS'source'
p1502
I4
sS'start_sent'
p1503
I00
sS'tier'
p1504
I0
sS'updating'
p1505
I00
sa(dp1506
S'send_stats'
p1507
I01
sS'fails'
p1508
I0
sS'verified'
p1509
I00
sS'url'
p1510
S'udp://tracker.coppersurfer.tk:6969'
p1511
sS'fail_limit'
p1512
I0
sS'complete_sent'
p1513
I00
sS'source'
p1514
I4
sS'start_sent'
p1515
I00
sS'tier'
p1516
I0
sS'updating'
p1517
I00
sa(dp1518
S'send_stats'
p1519
I01
sS'fails'
p1520
I0
sS'verified'
p1521
I00
sS'url'
p1522
S'udp://public.popcorn-tracker.org:6969'
p1523
sS'fail_limit'
p1524
I0
sS'complete_sent'
p1525
I00
sS'source'
p1526
I4
sS'start_sent'
p1527
I00
sS'tier'
p1528
I0
sS'updating'
p1529
I00
sasg80
Nsg81
I00
sg82
F2
sg83
I01
sba(ideluge.core.torrentmanager
TorrentState
p1530
(dp1531
g7
F-1
sg8
S'/home/xorob0/Downloads'
p1532
sg10
I00
sg11
I-1
sg12
I00
sg13
I-1
sg14
I00
sg15
I24
sg16
(lp1533
I1
aI1
aI1
aI1
aI1
aI1
aI1
aI1
aI1
aI1
asg18
S'9f95da757683a95bbb4b2d28799f35279504cf1d'
p1534
sg20
F-1
sg21
S'/home/xorob0/Downloads'
p1535
sg23
F1487703894.1989379
sg24
I245014404
sg25
S'9f95da757683a95bbb4b2d28799f35279504cf1d'
p1536
sg27
I01
sg28
I00
sg29
I00
sg30
(lp1537
(dp1538
S'send_stats'
p1539
I01
sS'fails'
p1540
I0
sS'verified'
p1541
I00
sS'url'
p1542
S'udp://tracker.leechers-paradise.org:6969'
p1543
sS'fail_limit'
p1544
I0
sS'complete_sent'
p1545
I00
sS'source'
p1546
I4
sS'start_sent'
p1547
I00
sS'tier'
p1548
I0
sS'updating'
p1549
I00
sa(dp1550
S'send_stats'
p1551
I01
sS'fails'
p1552
I0
sS'verified'
p1553
I00
sS'url'
p1554
S'udp://zer0day.ch:1337'
p1555
sS'fail_limit'
p1556
I0
sS'complete_sent'
p1557
I00
sS'source'
p1558
I4
sS'start_sent'
p1559
I00
sS'tier'
p1560
I0
sS'updating'
p1561
I00
sa(dp1562
S'send_stats'
p1563
I01
sS'fails'
p1564
I0
sS'verified'
p1565
I00
sS'url'
p1566
S'udp://tracker.coppersurfer.tk:6969'
p1567
sS'fail_limit'
p1568
I0
sS'complete_sent'
p1569
I00
sS'source'
p1570
I4
sS'start_sent'
p1571
I00
sS'tier'
p1572
I0
sS'updating'
p1573
I00
sa(dp1574
S'send_stats'
p1575
I01
sS'fails'
p1576
I0
sS'verified'
p1577
I00
sS'url'
p1578
S'udp://public.popcorn-tracker.org:6969'
p1579
sS'fail_limit'
p1580
I0
sS'complete_sent'
p1581
I00
sS'source'
p1582
I4
sS'start_sent'
p1583
I00
sS'tier'
p1584
I0
sS'updating'
p1585
I00
sasg80
Nsg81
I00
sg82
F2
sg83
I01
sba(ideluge.core.torrentmanager
TorrentState
p1586
(dp1587
g7
F-1
sg8
S'/home/xorob0/Downloads'
p1588
sg10
I00
sg11
I-1
sg12
I00
sg13
I-1
sg14
I00
sg15
I25
sg16
(lp1589
I1
aI1
aI1
aI1
asg18
S'ca5bb78b0cbbabe9c5c155c301cf6a75a5aed6e8'
p1590
sg20
F-1
sg21
S'/home/xorob0/Downloads'
p1591
sg23
F1486370533.807353
sg24
I16623269
sg25
S'ca5bb78b0cbbabe9c5c155c301cf6a75a5aed6e8'
p1592
sg27
I01
sg28
I00
sg29
I00
sg30
(lp1593
(dp1594
S'send_stats'
p1595
I01
sS'fails'
p1596
I0
sS'verified'
p1597
I00
sS'url'
p1598
S'udp://tracker.leechers-paradise.org:6969'
p1599
sS'fail_limit'
p1600
I0
sS'complete_sent'
p1601
I00
sS'source'
p1602
I4
sS'start_sent'
p1603
I00
sS'tier'
p1604
I0
sS'updating'
p1605
I00
sa(dp1606
S'send_stats'
p1607
I01
sS'fails'
p1608
I0
sS'verified'
p1609
I00
sS'url'
p1610
S'udp://zer0day.ch:1337'
p1611
sS'fail_limit'
p1612
I0
sS'complete_sent'
p1613
I00
sS'source'
p1614
I4
sS'start_sent'
p1615
I00
sS'tier'
p1616
I0
sS'updating'
p1617
I00
sa(dp1618
S'send_stats'
p1619
I01
sS'fails'
p1620
I0
sS'verified'
p1621
I00
sS'url'
p1622
S'udp://tracker.coppersurfer.tk:6969'
p1623
sS'fail_limit'
p1624
I0
sS'complete_sent'
p1625
I00
sS'source'
p1626
I4
sS'start_sent'
p1627
I00
sS'tier'
p1628
I0
sS'updating'
p1629
I00
sa(dp1630
S'send_stats'
p1631
I01
sS'fails'
p1632
I0
sS'verified'
p1633
I00
sS'url'
p1634
S'udp://public.popcorn-tracker.org:6969'
p1635
sS'fail_limit'
p1636
I0
sS'complete_sent'
p1637
I00
sS'source'
p1638
I4
sS'start_sent'
p1639
I00
sS'tier'
p1640
I0
sS'updating'
p1641
I00
sasg80
Nsg81
I00
sg82
F2
sg83
I01
sba(ideluge.core.torrentmanager
TorrentState
p1642
(dp1643
g7
F-1
sg8
S'/home/xorob0/Downloads'
p1644
sg10
I00
sg11
I-1
sg12
I00
sg13
I-1
sg14
I00
sg15
I26
sg16
(lp1645
I1
aI1
asg18
S'Birdy.1984.MULTI.TRUEFRENCH.DVDRip.x264.AC3-HuSh-2.torrent'
p1646
sg20
F-1
sg21
S'/home/xorob0/Downloads'
p1647
sg23
F1486317910.9871731
sg24
I0
sg25
S'b555b6215676c15461ab827329d922004e2261d6'
p1648
sg27
I01
sg28
I00
sg29
I00
sg30
(lp1649
(dp1650
S'send_stats'
p1651
I01
sS'fails'
p1652
I0
sS'verified'
p1653
I00
sS'url'
p1654
S'http://t411.download/f53f41ff0afb2c7d652c31b01a8256c0/announce'
p1655
sS'fail_limit'
p1656
I0
sS'complete_sent'
p1657
I00
sS'source'
p1658
I1
sS'start_sent'
p1659
I00
sS'tier'
p1660
I0
sS'updating'
p1661
I00
sasg80
Nsg81
I00
sg82
F2
sg83
I01
sba(ideluge.core.torrentmanager
TorrentState
p1662
(dp1663
g7
F-1
sg8
S'/home/xorob0/Downloads'
p1664
sg10
I00
sg11
I-1
sg12
I00
sg13
I-1
sg14
I00
sg15
I27
sg16
(lp1665
I1
aI1
aI1
aI1
aI1
aI1
aI1
aI1
aI1
aI1
aI1
aI1
aI1
aI1
aI1
aI1
aI1
aI1
aI1
aI1
aI1
aI1
aI1
aI1
asg18
S'Nanatsu no Taizai - The Seven Deadly Sins.torrent'
p1666
sg20
F-1
sg21
S'/home/xorob0/Downloads'
p1667
sg23
F1486808894.327589
sg24
I0
sg25
S'fe991f7e2009cafcbd8623e4da1326189ee75796'
p1668
sg27
I01
sg28
I00
sg29
I00
sg30
(lp1669
(dp1670
g301
I0
sg302
S'http://t411.download/f53f41lolff0afb2c7d652c31b01a8256c0/announce'
p1671
sasg80
Nsg81
I00
sg82
F2
sg83
I01
sbasb.